target datalayout = "e-m:e-p270:32:32-p271:32:32-p272:64:64-i64:64-i128:128-f80:128-n8:16:32:64-S128"
target triple = "x86_64-unknown-linux-gnu"

; Function Attrs: mustprogress uwtable
define linkonce_odr void @_ZN8QuantLib15CalibratedModel6updateEv(ptr noundef nonnull align 8 dereferenceable(76) %this) unnamed_addr #2 comdat align 2 {
entry:
  %this.addr = alloca ptr, align 8
  store ptr %this, ptr %this.addr, align 8, !tbaa !3
  %this1 = load ptr, ptr %this.addr, align 8
  %vtable = load ptr, ptr %this1, align 8, !tbaa !25
  %vfn = getelementptr inbounds ptr, ptr %vtable, i64 3
  %0 = load ptr, ptr %vfn, align 8
  call void %0(ptr noundef nonnull align 8 dereferenceable(76) %this1)
  %vtable2 = load ptr, ptr %this1, align 8, !tbaa !25
  %vbase.offset.ptr = getelementptr i8, ptr %vtable2, i64 -32
  %vbase.offset = load i64, ptr %vbase.offset.ptr, align 8
  %add.ptr = getelementptr inbounds i8, ptr %this1, i64 %vbase.offset
  call void @_ZN8QuantLib10Observable15notifyObserversEv(ptr noundef nonnull align 8 dereferenceable(56) %add.ptr)
  ret void
}

; Function Attrs: mustprogress uwtable
define void @_ZN8QuantLib24GridModelLocalVolSurface6updateEv(ptr noundef nonnull align 8 dereferenceable(248) %this) unnamed_addr #2 align 2 {
entry:
  %this.addr = alloca ptr, align 8
  store ptr %this, ptr %this.addr, align 8, !tbaa !3
  %this1 = load ptr, ptr %this.addr, align 8
  call void @_ZN8QuantLib13TermStructure6updateEv(ptr noundef nonnull align 8 dereferenceable(64) %this1)
  %add.ptr = getelementptr inbounds i8, ptr %this1, i64 72
  call void @_ZN8QuantLib15CalibratedModel6updateEv(ptr noundef nonnull align 8 dereferenceable(76) %add.ptr)
  ret void
}

; Function Attrs: uwtable
define void @_ZThn72_N8QuantLib24GridModelLocalVolSurface6updateEv(ptr noundef %this) unnamed_addr #7 align 2 {
entry:
  %this.addr = alloca ptr, align 8
  store ptr %this, ptr %this.addr, align 8, !tbaa !3
  %this1 = load ptr, ptr %this.addr, align 8
  %0 = getelementptr inbounds i8, ptr %this1, i64 -72
  tail call void @_ZN8QuantLib24GridModelLocalVolSurface6updateEv(ptr noundef nonnull align 8 dereferenceable(248) %0)
  ret void
}