; Function Attrs: uwtable
define void @_ZThn72_N8QuantLib24GridModelLocalVolSurface6updateEv(ptr noundef %this) unnamed_addr #11 align 2 {
entry:
  %0 = getelementptr inbounds i8, ptr %this, i64 -72
  tail call void @_ZN8QuantLib13TermStructure6updateEv(ptr noundef nonnull align 8 dereferenceable(64) %0)
  %vtable.i.i = load ptr, ptr %this, align 8, !tbaa !49
  %vfn.i.i = getelementptr inbounds i8, ptr %vtable.i.i, i64 24
  %1 = load ptr, ptr %vfn.i.i, align 8
  tail call void %1(ptr noundef nonnull align 8 dereferenceable(76) %this)
  %vtable2.i.i = load ptr, ptr %this, align 8, !tbaa !49
  %vbase.offset.ptr.i.i = getelementptr i8, ptr %vtable2.i.i, i64 -32
  %vbase.offset.i.i = load i64, ptr %vbase.offset.ptr.i.i, align 8
  %add.ptr.i.i = getelementptr inbounds i8, ptr %this, i64 %vbase.offset.i.i
  tail call void @_ZN8QuantLib10Observable15notifyObserversEv(ptr noundef nonnull align 8 dereferenceable(56) %add.ptr.i.i)
  ret void
}